target datalayout = "e-m:e-p270:32:32-p271:32:32-p272:64:64-i64:64-i128:128-f80:128-n8:16:32:64-S128"
target triple = "x86_64-pc-linux-gnu"

%struct.http2_session_data = type { ptr, ptr, ptr, ptr }
%struct.http2_stream_data = type { ptr, ptr, ptr, ptr, i64, i64, i32 }

@stderr = external global ptr, align 8
@.str.16 = private unnamed_addr constant [37 x i8] c"Stream %d closed with error_code=%u\0A\00", align 1

; Function Attrs: nounwind uwtable
define internal i32 @on_stream_close_callback(ptr noundef %0, i32 noundef %1, i32 noundef %2, ptr noundef %3) #0 {
  %5 = alloca i32, align 4
  %6 = alloca ptr, align 8
  %7 = alloca i32, align 4
  %8 = alloca i32, align 4
  %9 = alloca ptr, align 8
  %10 = alloca ptr, align 8
  %11 = alloca i32, align 4
  %12 = alloca i32, align 4
  store ptr %0, ptr %6, align 8, !tbaa !63
  store i32 %1, ptr %7, align 4, !tbaa !4
  store i32 %2, ptr %8, align 4, !tbaa !4
  store ptr %3, ptr %9, align 8, !tbaa !29
  call void @llvm.lifetime.start.p0(i64 8, ptr %10) #10
  %13 = load ptr, ptr %9, align 8, !tbaa !29
  store ptr %13, ptr %10, align 8, !tbaa !29
  call void @llvm.lifetime.start.p0(i64 4, ptr %11) #10
  %14 = load ptr, ptr %10, align 8, !tbaa !29
  %15 = getelementptr inbounds nuw %struct.http2_session_data, ptr %14, i32 0, i32 3
  %16 = load ptr, ptr %15, align 8, !tbaa !30
  %17 = getelementptr inbounds nuw %struct.http2_stream_data, ptr %16, i32 0, i32 6
  %18 = load i32, ptr %17, align 8, !tbaa !43
  %19 = load i32, ptr %7, align 4, !tbaa !4
  %20 = icmp eq i32 %18, %19
  br i1 %20, label %21, label %32

21:                                               ; preds = %4
  %22 = load ptr, ptr @stderr, align 8, !tbaa !12
  %23 = load i32, ptr %7, align 4, !tbaa !4
  %24 = load i32, ptr %8, align 4, !tbaa !4
  %25 = call i32 (ptr, ptr, ...) @fprintf(ptr noundef %22, ptr noundef @.str.16, i32 noundef %23, i32 noundef %24) #10
  %26 = load ptr, ptr %6, align 8, !tbaa !63
  %27 = call i32 @nghttp2_session_terminate_session(ptr noundef %26, i32 noundef 0)
  store i32 %27, ptr %11, align 4, !tbaa !4
  %28 = load i32, ptr %11, align 4, !tbaa !4
  %29 = icmp ne i32 %28, 0
  br i1 %29, label %30, label %31

30:                                               ; preds = %21
  store i32 -902, ptr %5, align 4
  store i32 1, ptr %12, align 4
  br label %33

31:                                               ; preds = %21
  br label %32

32:                                               ; preds = %31, %4
  store i32 0, ptr %5, align 4
  store i32 1, ptr %12, align 4
  br label %33

33:                                               ; preds = %32, %30
  call void @llvm.lifetime.end.p0(i64 4, ptr %11) #10
  call void @llvm.lifetime.end.p0(i64 8, ptr %10) #10
  %34 = load i32, ptr %5, align 4
  ret i32 %34
}