; Function Attrs: nounwind uwtable
define internal range(i32 -902, 1) i32 @on_stream_close_callback(ptr noundef %0, i32 noundef %1, i32 noundef %2, ptr noundef readonly captures(none) %3) #0 {
  %5 = getelementptr inbounds nuw i8, ptr %3, i64 24
  %6 = load ptr, ptr %5, align 8, !tbaa !35
  %7 = getelementptr inbounds nuw i8, ptr %6, i64 48
  %8 = load i32, ptr %7, align 8, !tbaa !29
  %9 = icmp eq i32 %8, %1
  br i1 %9, label %10, label %14

10:                                               ; preds = %4
  %11 = load ptr, ptr @stderr, align 8, !tbaa !4
  %12 = tail call i32 (ptr, ptr, ...) @fprintf(ptr noundef %11, ptr noundef nonnull @.str.16, i32 noundef %1, i32 noundef %2) #24
  %13 = tail call i32 @nghttp2_session_terminate_session(ptr noundef %0, i32 noundef 0) #18
  %.not = icmp eq i32 %13, 0
  br i1 %.not, label %14, label %15

14:                                               ; preds = %10, %4
  br label %15

15:                                               ; preds = %10, %14
  %.0 = phi i32 [ 0, %14 ], [ -902, %10 ]
  ret i32 %.0
}